; Function Attrs: mustprogress uwtable
define void @Z3_fixedpoint_add_callback(ptr noundef %c, ptr nocapture noundef readonly %d, ptr noundef %state, ptr noundef %new_lemma_eh, ptr noundef %predecessor_eh, ptr noundef %unfold_eh) local_unnamed_addr #3 personality ptr @__gxx_personality_v0 {
entry:
  %m_datalog.i = getelementptr inbounds i8, ptr %d, i64 24
  %0 = load ptr, ptr %m_datalog.i, align 8
  %m_context.i = getelementptr inbounds i8, ptr %0, i64 48
  invoke void @_ZN7datalog7context13ensure_engineEP4expr(ptr noundef nonnull align 8 dereferenceable(3556) %m_context.i, ptr noundef null)
          to label %.noexc unwind label %lpad

.noexc:                                           ; preds = %entry
  %m_engine.i = getelementptr inbounds i8, ptr %0, i64 3552
  %1 = load ptr, ptr %m_engine.i, align 8
  %vtable.i = load ptr, ptr %1, align 8
  %vfn.i = getelementptr inbounds i8, ptr %vtable.i, i64 152
  %2 = load ptr, ptr %vfn.i, align 8
  invoke void %2(ptr noundef nonnull align 8 dereferenceable(48) %1, ptr noundef %state, ptr noundef %new_lemma_eh, ptr noundef %predecessor_eh, ptr noundef %unfold_eh)
          to label %try.cont unwind label %lpad

lpad:                                             ; preds = %.noexc, %entry
  %3 = landingpad { ptr, i32 }
          catch ptr @_ZTI12z3_exception
  %4 = extractvalue { ptr, i32 } %3, 1
  %5 = tail call i32 @llvm.eh.typeid.for(ptr nonnull @_ZTI12z3_exception) #15
  %matches = icmp eq i32 %4, %5
  br i1 %matches, label %catch, label %eh.resume

catch:                                            ; preds = %lpad
  %6 = extractvalue { ptr, i32 } %3, 0
  %7 = tail call ptr @__cxa_begin_catch(ptr %6) #15
  invoke void @_ZN3api7context16handle_exceptionER12z3_exception(ptr noundef nonnull align 8 dereferenceable(3048) %c, ptr noundef nonnull align 8 dereferenceable(8) %7)
          to label %invoke.cont7 unwind label %lpad4

invoke.cont7:                                     ; preds = %catch
  tail call void @__cxa_end_catch()
  br label %try.cont

lpad4:                                            ; preds = %catch
  %8 = landingpad { ptr, i32 }
          cleanup
  invoke void @__cxa_end_catch()
          to label %eh.resume unwind label %terminate.lpad

try.cont:                                         ; preds = %.noexc, %invoke.cont7
  ret void

eh.resume:                                        ; preds = %lpad4, %lpad
  %lpad.val11.merged = phi { ptr, i32 } [ %8, %lpad4 ], [ %3, %lpad ]
  resume { ptr, i32 } %lpad.val11.merged

terminate.lpad:                                   ; preds = %lpad4
  %9 = landingpad { ptr, i32 }
          catch ptr null
  %10 = extractvalue { ptr, i32 } %9, 0
  tail call void @__clang_call_terminate(ptr %10) #16
  unreachable
}